; Function Attrs: null_pointer_is_valid sspstrong uwtable
define internal noundef zeroext i1 @cllog_read(ptr noundef readonly captures(none) %0, ptr noundef %1, ptr noundef %2, ptr noundef %3, ptr noundef writeonly captures(none) initializes((0, 8)) %4) #0 {
  %6 = load ptr, ptr %0, align 8
  %7 = tail call i64 @file_tell(ptr noundef %6)
  store i64 %7, ptr %4, align 8
  %8 = load ptr, ptr %0, align 8
  %9 = getelementptr i8, ptr %0, i64 96
  %.val = load ptr, ptr %9, align 8
  %10 = tail call fastcc zeroext i1 @cllog_read_common(ptr %.val, ptr noundef %8, ptr noundef %1, ptr noundef %2, ptr noundef %3)
  ret i1 %10
}